target datalayout = "e-m:e-p270:32:32-p271:32:32-p272:64:64-i64:64-i128:128-f80:128-n8:16:32:64-S128"
target triple = "x86_64-pc-linux-gnu"

%"class.sls::bvect" = type <{ %class.svector, i32, i32, i32, [4 x i8] }>
%class.svector = type { %class.vector }
%class.vector = type { ptr }

; Function Attrs: mustprogress nounwind uwtable
define linkonce_odr hidden noundef nonnull align 4 dereferenceable(4) ptr @_ZNK6vectorIjLb0EjEixEj(ptr noundef nonnull align 8 dereferenceable(8) %0, i32 noundef %1) #5 comdat align 2 {
  %3 = alloca ptr, align 8
  %4 = alloca i32, align 4
  store ptr %0, ptr %3, align 8, !tbaa !17
  store i32 %1, ptr %4, align 4, !tbaa !8
  %5 = load ptr, ptr %3, align 8
  %6 = getelementptr inbounds nuw %class.vector, ptr %5, i32 0, i32 0
  %7 = load ptr, ptr %6, align 8, !tbaa !19
  %8 = load i32, ptr %4, align 4, !tbaa !8
  %9 = zext i32 %8 to i64
  %10 = getelementptr inbounds nuw i32, ptr %7, i64 %9
  ret ptr %10
}

; Function Attrs: mustprogress nounwind uwtable
define linkonce_odr hidden noundef i32 @_ZN3sls5bvect12get_pos_maskEj(i32 noundef %0) #5 comdat align 2 {
  %2 = alloca i32, align 4
  store i32 %0, ptr %2, align 4, !tbaa !8
  %3 = load i32, ptr %2, align 4, !tbaa !8
  %4 = zext i32 %3 to i64
  %5 = urem i64 %4, 32
  %6 = trunc i64 %5 to i32
  %7 = shl i32 1, %6
  ret i32 %7
}

; Function Attrs: mustprogress uwtable
define linkonce_odr hidden noundef i32 @_ZNK3sls5bvect12get_bit_wordEj(ptr noundef nonnull align 8 dereferenceable(20) %0, i32 noundef %1) #4 comdat align 2 {
  %3 = alloca ptr, align 8
  %4 = alloca i32, align 4
  store ptr %0, ptr %3, align 8, !tbaa !3
  store i32 %1, ptr %4, align 4, !tbaa !8
  %5 = load ptr, ptr %3, align 8
  %6 = load i32, ptr %4, align 4, !tbaa !8
  %7 = zext i32 %6 to i64
  %8 = udiv i64 %7, 32
  %9 = trunc i64 %8 to i32
  %10 = call noundef nonnull align 4 dereferenceable(4) ptr @_ZNK6vectorIjLb0EjEixEj(ptr noundef nonnull align 8 dereferenceable(8) %5, i32 noundef %9)
  %11 = load i32, ptr %10, align 4, !tbaa !8
  ret i32 %11
}

; Function Attrs: mustprogress uwtable
define linkonce_odr hidden noundef zeroext i1 @_ZNK3sls5bvect3getEj(ptr noundef nonnull align 8 dereferenceable(20) %0, i32 noundef %1) #4 comdat align 2 {
  %3 = alloca ptr, align 8
  %4 = alloca i32, align 4
  store ptr %0, ptr %3, align 8, !tbaa !3
  store i32 %1, ptr %4, align 4, !tbaa !8
  %5 = load ptr, ptr %3, align 8
  %6 = load i32, ptr %4, align 4, !tbaa !8
  %7 = call noundef i32 @_ZNK3sls5bvect12get_bit_wordEj(ptr noundef nonnull align 8 dereferenceable(20) %5, i32 noundef %6)
  %8 = load i32, ptr %4, align 4, !tbaa !8
  %9 = call noundef i32 @_ZN3sls5bvect12get_pos_maskEj(i32 noundef %8)
  %10 = and i32 %7, %9
  %11 = icmp ne i32 %10, 0
  ret i1 %11
}

; Function Attrs: mustprogress uwtable
define hidden noundef i32 @_ZNK3sls5bvect6to_natEj(ptr noundef nonnull align 8 dereferenceable(20) %0, i32 noundef %1) #4 align 2 {
  %3 = alloca i32, align 4
  %4 = alloca ptr, align 8
  %5 = alloca i32, align 4
  %6 = alloca i32, align 4
  %7 = alloca i32, align 4
  %8 = alloca i32, align 4
  %9 = alloca i32, align 4
  %10 = alloca i32, align 4
  store ptr %0, ptr %4, align 8, !tbaa !3
  store i32 %1, ptr %5, align 4, !tbaa !8
  %11 = load ptr, ptr %4, align 8
  call void @llvm.lifetime.start.p0(i64 4, ptr %6) #3
  store i32 1, ptr %6, align 4, !tbaa !8
  call void @llvm.lifetime.start.p0(i64 4, ptr %7) #3
  store i32 0, ptr %7, align 4, !tbaa !8
  call void @llvm.lifetime.start.p0(i64 4, ptr %8) #3
  store i32 0, ptr %8, align 4, !tbaa !8
  br label %12

12:                                               ; preds = %53, %2
  %13 = load i32, ptr %8, align 4, !tbaa !8
  %14 = getelementptr inbounds nuw %"class.sls::bvect", ptr %11, i32 0, i32 1
  %15 = load i32, ptr %14, align 8, !tbaa !10
  %16 = icmp ult i32 %13, %15
  br i1 %16, label %18, label %17

17:                                               ; preds = %12
  store i32 2, ptr %9, align 4
  br label %56

18:                                               ; preds = %12
  %19 = load i32, ptr %6, align 4, !tbaa !8
  %20 = load i32, ptr %5, align 4, !tbaa !8
  %21 = icmp uge i32 %19, %20
  br i1 %21, label %22, label %43

22:                                               ; preds = %18
  call void @llvm.lifetime.start.p0(i64 4, ptr %10) #3
  %23 = load i32, ptr %8, align 4, !tbaa !8
  store i32 %23, ptr %10, align 4, !tbaa !8
  br label %24

24:                                               ; preds = %36, %22
  %25 = load i32, ptr %10, align 4, !tbaa !8
  %26 = getelementptr inbounds nuw %"class.sls::bvect", ptr %11, i32 0, i32 1
  %27 = load i32, ptr %26, align 8, !tbaa !10
  %28 = icmp ult i32 %25, %27
  br i1 %28, label %30, label %29

29:                                               ; preds = %24
  store i32 5, ptr %9, align 4
  br label %39

30:                                               ; preds = %24
  %31 = load i32, ptr %10, align 4, !tbaa !8
  %32 = call noundef zeroext i1 @_ZNK3sls5bvect3getEj(ptr noundef nonnull align 8 dereferenceable(20) %11, i32 noundef %31)
  br i1 %32, label %33, label %35

33:                                               ; preds = %30
  %34 = load i32, ptr %5, align 4, !tbaa !8
  store i32 %34, ptr %3, align 4
  store i32 1, ptr %9, align 4
  br label %39

35:                                               ; preds = %30
  br label %36

36:                                               ; preds = %35
  %37 = load i32, ptr %10, align 4, !tbaa !8
  %38 = add i32 %37, 1
  store i32 %38, ptr %10, align 4, !tbaa !8
  br label %24, !llvm.loop !47

39:                                               ; preds = %33, %29
  call void @llvm.lifetime.end.p0(i64 4, ptr %10) #3
  %40 = load i32, ptr %9, align 4
  switch i32 %40, label %56 [
    i32 5, label %41
  ]

41:                                               ; preds = %39
  %42 = load i32, ptr %7, align 4, !tbaa !8
  store i32 %42, ptr %3, align 4
  store i32 1, ptr %9, align 4
  br label %56

43:                                               ; preds = %18
  %44 = load i32, ptr %8, align 4, !tbaa !8
  %45 = call noundef zeroext i1 @_ZNK3sls5bvect3getEj(ptr noundef nonnull align 8 dereferenceable(20) %11, i32 noundef %44)
  br i1 %45, label %46, label %50

46:                                               ; preds = %43
  %47 = load i32, ptr %6, align 4, !tbaa !8
  %48 = load i32, ptr %7, align 4, !tbaa !8
  %49 = add i32 %48, %47
  store i32 %49, ptr %7, align 4, !tbaa !8
  br label %50

50:                                               ; preds = %46, %43
  %51 = load i32, ptr %6, align 4, !tbaa !8
  %52 = shl i32 %51, 1
  store i32 %52, ptr %6, align 4, !tbaa !8
  br label %53

53:                                               ; preds = %50
  %54 = load i32, ptr %8, align 4, !tbaa !8
  %55 = add i32 %54, 1
  store i32 %55, ptr %8, align 4, !tbaa !8
  br label %12, !llvm.loop !48

56:                                               ; preds = %41, %39, %17
  call void @llvm.lifetime.end.p0(i64 4, ptr %8) #3
  %57 = load i32, ptr %9, align 4
  switch i32 %57, label %60 [
    i32 2, label %58
  ]

58:                                               ; preds = %56
  %59 = load i32, ptr %7, align 4, !tbaa !8
  store i32 %59, ptr %3, align 4
  store i32 1, ptr %9, align 4
  br label %60

60:                                               ; preds = %58, %56
  call void @llvm.lifetime.end.p0(i64 4, ptr %7) #3
  call void @llvm.lifetime.end.p0(i64 4, ptr %6) #3
  %61 = load i32, ptr %3, align 4
  ret i32 %61
}