; Function Attrs: mustprogress nofree norecurse nosync nounwind willreturn memory(read, inaccessiblemem: none) uwtable
define hidden noundef i32 @_ZNK3sls5bvect6to_natEj(ptr noundef nonnull readonly align 8 captures(none) dereferenceable(20) %0, i32 noundef %1) local_unnamed_addr #8 align 2 {
  %3 = getelementptr inbounds nuw i8, ptr %0, i64 8
  %4 = load i32, ptr %3, align 8, !tbaa !3
  %.not2837.not = icmp eq i32 %4, 0
  br i1 %.not2837.not, label %.loopexit, label %.lr.ph

.lr.ph:                                           ; preds = %2
  %5 = load ptr, ptr %0, align 8
  br label %6

6:                                                ; preds = %.lr.ph, %16
  %.02040 = phi i32 [ 0, %.lr.ph ], [ %26, %16 ]
  %.02139 = phi i32 [ 0, %.lr.ph ], [ %spec.select29, %16 ]
  %.02338 = phi i32 [ 1, %.lr.ph ], [ %25, %16 ]
  %.not = icmp ult i32 %.02338, %1
  br i1 %.not, label %16, label %.preheader

.preheader:                                       ; preds = %6
  %.not2741 = icmp ult i32 %.02040, %4
  br i1 %.not2741, label %.lr.ph43, label %.loopexit

7:                                                ; preds = %.lr.ph43
  %8 = add i32 %.042, 1
  %exitcond50.not = icmp eq i32 %8, %4
  br i1 %exitcond50.not, label %.loopexit, label %.lr.ph43, !llvm.loop !59

.lr.ph43:                                         ; preds = %.preheader, %7
  %.042 = phi i32 [ %8, %7 ], [ %.02040, %.preheader ]
  %9 = lshr i32 %.042, 5
  %10 = zext nneg i32 %9 to i64
  %11 = getelementptr inbounds nuw i32, ptr %5, i64 %10
  %12 = load i32, ptr %11, align 4, !tbaa !15
  %13 = and i32 %.042, 31
  %14 = shl nuw i32 1, %13
  %15 = and i32 %12, %14
  %.not31 = icmp eq i32 %15, 0
  br i1 %.not31, label %7, label %.loopexit

16:                                               ; preds = %6
  %17 = lshr i32 %.02040, 5
  %18 = zext nneg i32 %17 to i64
  %19 = getelementptr inbounds nuw i32, ptr %5, i64 %18
  %20 = load i32, ptr %19, align 4, !tbaa !15
  %21 = and i32 %.02040, 31
  %22 = shl nuw i32 1, %21
  %23 = and i32 %20, %22
  %.not32 = icmp eq i32 %23, 0
  %24 = select i1 %.not32, i32 0, i32 %.02338
  %spec.select29 = add i32 %24, %.02139
  %25 = shl i32 %.02338, 1
  %26 = add nuw i32 %.02040, 1
  %exitcond.not = icmp eq i32 %26, %4
  br i1 %exitcond.not, label %.loopexit, label %6, !llvm.loop !60

.loopexit:                                        ; preds = %16, %.lr.ph43, %7, %2, %.preheader
  %spec.select30 = phi i32 [ %.02139, %.preheader ], [ 0, %2 ], [ %1, %.lr.ph43 ], [ %.02139, %7 ], [ %spec.select29, %16 ]
  ret i32 %spec.select30
}